; Function Attrs: nounwind uwtable
define noalias nonnull ptr @l_Lean_PersistentHashMap_foldlM___at_Lean_SMap_instForInProd___spec__5___boxed(ptr noundef readnone captures(none) %0, ptr noundef readnone captures(none) %1, ptr noundef %2, ptr noundef %3, ptr noundef readnone captures(none) %4, ptr noundef readnone captures(none) %5) local_unnamed_addr #0 {
  tail call void @lean_inc_heartbeat() #3
  %7 = tail call noalias ptr @mi_malloc_small(i64 noundef 24) #3
  %8 = icmp eq ptr %7, null
  br i1 %8, label %9, label %l_Lean_PersistentHashMap_foldlM___at_Lean_SMap_instForInProd___spec__5.exit

9:                                                ; preds = %6
  tail call void @lean_internal_panic_out_of_memory() #4
  unreachable

l_Lean_PersistentHashMap_foldlM___at_Lean_SMap_instForInProd___spec__5.exit: ; preds = %6
  %10 = getelementptr inbounds nuw i8, ptr %7, i64 4
  store i32 1, ptr %7, align 4, !tbaa !10
  store i32 -184549352, ptr %10, align 4
  %11 = getelementptr inbounds nuw i8, ptr %7, i64 8
  store ptr @l_Lean_PersistentHashMap_foldlM___at_Lean_SMap_instForInProd___spec__5___rarg, ptr %11, align 8, !tbaa !4
  %12 = getelementptr inbounds nuw i8, ptr %7, i64 16
  store i16 5, ptr %12, align 8, !tbaa !13
  %13 = getelementptr inbounds nuw i8, ptr %7, i64 18
  store i16 0, ptr %13, align 2, !tbaa !13
  %14 = ptrtoint ptr %3 to i64
  %15 = and i64 %14, 1
  %.not = icmp eq i64 %15, 0
  br i1 %.not, label %16, label %lean_dec.exit9

16:                                               ; preds = %l_Lean_PersistentHashMap_foldlM___at_Lean_SMap_instForInProd___spec__5.exit
  %17 = load i32, ptr %3, align 4, !tbaa !10
  %18 = icmp sgt i32 %17, 1
  br i1 %18, label %19, label %21, !prof !15

19:                                               ; preds = %16
  %20 = add nsw i32 %17, -1
  store i32 %20, ptr %3, align 4, !tbaa !10
  br label %lean_dec.exit9

21:                                               ; preds = %16
  %.not.i = icmp eq i32 %17, 0
  br i1 %.not.i, label %lean_dec.exit9, label %22

22:                                               ; preds = %21
  tail call void @lean_dec_ref_cold(ptr noundef nonnull %3) #3
  br label %lean_dec.exit9

lean_dec.exit9:                                   ; preds = %22, %21, %19, %l_Lean_PersistentHashMap_foldlM___at_Lean_SMap_instForInProd___spec__5.exit
  %23 = ptrtoint ptr %2 to i64
  %24 = and i64 %23, 1
  %.not12 = icmp eq i64 %24, 0
  br i1 %.not12, label %25, label %lean_dec.exit

25:                                               ; preds = %lean_dec.exit9
  %26 = load i32, ptr %2, align 4, !tbaa !10
  %27 = icmp sgt i32 %26, 1
  br i1 %27, label %28, label %30, !prof !15

28:                                               ; preds = %25
  %29 = add nsw i32 %26, -1
  store i32 %29, ptr %2, align 4, !tbaa !10
  br label %lean_dec.exit

30:                                               ; preds = %25
  %.not.i10 = icmp eq i32 %26, 0
  br i1 %.not.i10, label %lean_dec.exit, label %31

31:                                               ; preds = %30
  tail call void @lean_dec_ref_cold(ptr noundef nonnull %2) #3
  br label %lean_dec.exit

lean_dec.exit:                                    ; preds = %31, %30, %28, %lean_dec.exit9
  ret ptr %7
}